target datalayout = "e-m:e-p270:32:32-p271:32:32-p272:64:64-i64:64-i128:128-f80:128-n8:16:32:64-S128"
target triple = "x86_64-pc-linux-gnu"

%struct.TValue = type { %union.Value, i8 }
%union.Value = type { ptr }
%struct.TString = type { ptr, i8, i8, i8, i8, i32, %union.anon, ptr, ptr, ptr }
%union.anon = type { i64 }

; Function Attrs: nounwind uwtable
define internal i32 @l_strton(ptr noundef %0, ptr noundef %1) #0 {
  %3 = alloca i32, align 4
  %4 = alloca ptr, align 8
  %5 = alloca ptr, align 8
  %6 = alloca ptr, align 8
  %7 = alloca i64, align 8
  %8 = alloca ptr, align 8
  store ptr %0, ptr %4, align 8, !tbaa !4
  store ptr %1, ptr %5, align 8, !tbaa !4
  %9 = load ptr, ptr %4, align 8, !tbaa !4
  %10 = getelementptr inbounds nuw %struct.TValue, ptr %9, i32 0, i32 1
  %11 = load i8, ptr %10, align 8, !tbaa !11
  %12 = zext i8 %11 to i32
  %13 = and i32 %12, 15
  %14 = icmp eq i32 %13, 4
  br i1 %14, label %16, label %15

15:                                               ; preds = %2
  store i32 0, ptr %3, align 4
  br label %48

16:                                               ; preds = %2
  call void @llvm.lifetime.start.p0(i64 8, ptr %6) #10
  %17 = load ptr, ptr %4, align 8, !tbaa !4
  %18 = getelementptr inbounds nuw %struct.TValue, ptr %17, i32 0, i32 0
  %19 = load ptr, ptr %18, align 8, !tbaa !13
  store ptr %19, ptr %6, align 8, !tbaa !16
  call void @llvm.lifetime.start.p0(i64 8, ptr %7) #10
  call void @llvm.lifetime.start.p0(i64 8, ptr %8) #10
  %20 = load ptr, ptr %6, align 8, !tbaa !16
  %21 = getelementptr inbounds nuw %struct.TString, ptr %20, i32 0, i32 4
  %22 = load i8, ptr %21, align 1, !tbaa !18
  %23 = sext i8 %22 to i32
  %24 = icmp sge i32 %23, 0
  br i1 %24, label %25, label %32

25:                                               ; preds = %16
  %26 = load ptr, ptr %6, align 8, !tbaa !16
  %27 = getelementptr inbounds nuw %struct.TString, ptr %26, i32 0, i32 4
  %28 = load i8, ptr %27, align 1, !tbaa !18
  %29 = sext i8 %28 to i64
  store i64 %29, ptr %7, align 8, !tbaa !23
  %30 = load ptr, ptr %6, align 8, !tbaa !16
  %31 = getelementptr inbounds nuw %struct.TString, ptr %30, i32 0, i32 7
  br label %39

32:                                               ; preds = %16
  %33 = load ptr, ptr %6, align 8, !tbaa !16
  %34 = getelementptr inbounds nuw %struct.TString, ptr %33, i32 0, i32 6
  %35 = load i64, ptr %34, align 8, !tbaa !13
  store i64 %35, ptr %7, align 8, !tbaa !23
  %36 = load ptr, ptr %6, align 8, !tbaa !16
  %37 = getelementptr inbounds nuw %struct.TString, ptr %36, i32 0, i32 7
  %38 = load ptr, ptr %37, align 8, !tbaa !25
  br label %39

39:                                               ; preds = %32, %25
  %40 = phi ptr [ %31, %25 ], [ %38, %32 ]
  store ptr %40, ptr %8, align 8, !tbaa !26
  %41 = load ptr, ptr %8, align 8, !tbaa !26
  %42 = load ptr, ptr %5, align 8, !tbaa !4
  %43 = call i64 @luaO_str2num(ptr noundef %41, ptr noundef %42)
  %44 = load i64, ptr %7, align 8, !tbaa !23
  %45 = add i64 %44, 1
  %46 = icmp eq i64 %43, %45
  %47 = zext i1 %46 to i32
  store i32 %47, ptr %3, align 4
  call void @llvm.lifetime.end.p0(i64 8, ptr %8) #10
  call void @llvm.lifetime.end.p0(i64 8, ptr %7) #10
  call void @llvm.lifetime.end.p0(i64 8, ptr %6) #10
  br label %48

48:                                               ; preds = %39, %15
  %49 = load i32, ptr %3, align 4
  ret i32 %49
}

; Function Attrs: nounwind uwtable
define hidden i32 @luaV_tonumber_(ptr noundef %0, ptr noundef %1) #0 {
  %3 = alloca i32, align 4
  %4 = alloca ptr, align 8
  %5 = alloca ptr, align 8
  %6 = alloca %struct.TValue, align 8
  %7 = alloca i32, align 4
  store ptr %0, ptr %4, align 8, !tbaa !4
  store ptr %1, ptr %5, align 8, !tbaa !9
  call void @llvm.lifetime.start.p0(i64 16, ptr %6) #10
  %8 = load ptr, ptr %4, align 8, !tbaa !4
  %9 = getelementptr inbounds nuw %struct.TValue, ptr %8, i32 0, i32 1
  %10 = load i8, ptr %9, align 8, !tbaa !11
  %11 = zext i8 %10 to i32
  %12 = icmp eq i32 %11, 3
  br i1 %12, label %13, label %19

13:                                               ; preds = %2
  %14 = load ptr, ptr %4, align 8, !tbaa !4
  %15 = getelementptr inbounds nuw %struct.TValue, ptr %14, i32 0, i32 0
  %16 = load i64, ptr %15, align 8, !tbaa !13
  %17 = sitofp i64 %16 to double
  %18 = load ptr, ptr %5, align 8, !tbaa !9
  store double %17, ptr %18, align 8, !tbaa !14
  store i32 1, ptr %3, align 4
  store i32 1, ptr %7, align 4
  br label %39

19:                                               ; preds = %2
  %20 = load ptr, ptr %4, align 8, !tbaa !4
  %21 = call i32 @l_strton(ptr noundef %20, ptr noundef %6)
  %22 = icmp ne i32 %21, 0
  br i1 %22, label %23, label %38

23:                                               ; preds = %19
  %24 = getelementptr inbounds nuw %struct.TValue, ptr %6, i32 0, i32 1
  %25 = load i8, ptr %24, align 8, !tbaa !11
  %26 = zext i8 %25 to i32
  %27 = icmp eq i32 %26, 3
  br i1 %27, label %28, label %32

28:                                               ; preds = %23
  %29 = getelementptr inbounds nuw %struct.TValue, ptr %6, i32 0, i32 0
  %30 = load i64, ptr %29, align 8, !tbaa !13
  %31 = sitofp i64 %30 to double
  br label %35

32:                                               ; preds = %23
  %33 = getelementptr inbounds nuw %struct.TValue, ptr %6, i32 0, i32 0
  %34 = load double, ptr %33, align 8, !tbaa !13
  br label %35

35:                                               ; preds = %32, %28
  %36 = phi double [ %31, %28 ], [ %34, %32 ]
  %37 = load ptr, ptr %5, align 8, !tbaa !9
  store double %36, ptr %37, align 8, !tbaa !14
  store i32 1, ptr %3, align 4
  store i32 1, ptr %7, align 4
  br label %39

38:                                               ; preds = %19
  store i32 0, ptr %3, align 4
  store i32 1, ptr %7, align 4
  br label %39

39:                                               ; preds = %38, %35, %13
  call void @llvm.lifetime.end.p0(i64 16, ptr %6) #10
  %40 = load i32, ptr %3, align 4
  ret i32 %40
}