; Function Attrs: nounwind uwtable
define hidden range(i32 0, 2) i32 @luaV_tonumber_(ptr noundef readonly captures(none) %0, ptr noundef writeonly captures(none) %1) local_unnamed_addr #0 {
  %3 = alloca %struct.TValue, align 8
  call void @llvm.lifetime.start.p0(i64 16, ptr nonnull %3) #13
  %4 = getelementptr inbounds nuw i8, ptr %0, i64 8
  %5 = load i8, ptr %4, align 8, !tbaa !4
  %6 = icmp eq i8 %5, 3
  br i1 %6, label %7, label %10

7:                                                ; preds = %2
  %8 = load i64, ptr %0, align 8, !tbaa !8
  %9 = sitofp i64 %8 to double
  br label %l_strton.exit.thread.sink.split

10:                                               ; preds = %2
  %11 = and i8 %5, 15
  %12 = icmp eq i8 %11, 4
  br i1 %12, label %13, label %l_strton.exit.thread

13:                                               ; preds = %10
  %14 = load ptr, ptr %0, align 8, !tbaa !8
  %15 = getelementptr inbounds nuw i8, ptr %14, i64 11
  %16 = load i8, ptr %15, align 1, !tbaa !9
  %17 = icmp sgt i8 %16, -1
  br i1 %17, label %18, label %21

18:                                               ; preds = %13
  %19 = zext nneg i8 %16 to i64
  %20 = getelementptr inbounds nuw i8, ptr %14, i64 24
  br label %l_strton.exit

21:                                               ; preds = %13
  %22 = getelementptr inbounds nuw i8, ptr %14, i64 16
  %23 = load i64, ptr %22, align 8, !tbaa !8
  %24 = getelementptr inbounds nuw i8, ptr %14, i64 24
  %25 = load ptr, ptr %24, align 8, !tbaa !15
  br label %l_strton.exit

l_strton.exit:                                    ; preds = %18, %21
  %.010.i = phi i64 [ %19, %18 ], [ %23, %21 ]
  %26 = phi ptr [ %20, %18 ], [ %25, %21 ]
  %27 = call i64 @luaO_str2num(ptr noundef %26, ptr noundef nonnull %3) #13
  %28 = add i64 %.010.i, 1
  %.not = icmp eq i64 %27, %28
  br i1 %.not, label %29, label %l_strton.exit.thread

29:                                               ; preds = %l_strton.exit
  %30 = getelementptr inbounds nuw i8, ptr %3, i64 8
  %31 = load i8, ptr %30, align 8, !tbaa !4
  %32 = icmp eq i8 %31, 3
  %33 = load i64, ptr %3, align 8
  %34 = sitofp i64 %33 to double
  %.cast = bitcast i64 %33 to double
  %35 = select i1 %32, double %34, double %.cast
  br label %l_strton.exit.thread.sink.split

l_strton.exit.thread.sink.split:                  ; preds = %7, %29
  %.sink = phi double [ %35, %29 ], [ %9, %7 ]
  store double %.sink, ptr %1, align 8, !tbaa !16
  br label %l_strton.exit.thread

l_strton.exit.thread:                             ; preds = %l_strton.exit.thread.sink.split, %10, %l_strton.exit
  %.0 = phi i32 [ 0, %l_strton.exit ], [ 0, %10 ], [ 1, %l_strton.exit.thread.sink.split ]
  call void @llvm.lifetime.end.p0(i64 16, ptr nonnull %3) #13
  ret i32 %.0
}